; Function Attrs: nounwind uwtable
define internal void @free_filename(ptr noundef readonly captures(none) %0) #0 {
  %2 = load ptr, ptr %0, align 8, !tbaa !32
  %3 = getelementptr inbounds nuw i8, ptr %2, i64 4
  %4 = load i32, ptr %3, align 4, !tbaa !32
  %5 = and i32 %4, 64
  %.not.i = icmp eq i32 %5, 0
  br i1 %.not.i, label %6, label %zend_string_release_ex.exit

6:                                                ; preds = %1
  %7 = load i32, ptr %2, align 4, !tbaa !106
  %8 = icmp ne i32 %7, 0
  tail call void @llvm.assume(i1 %8)
  %9 = add i32 %7, -1
  store i32 %9, ptr %2, align 4, !tbaa !106
  %10 = icmp eq i32 %9, 0
  br i1 %10, label %11, label %zend_string_release_ex.exit

11:                                               ; preds = %6
  tail call void @_efree(ptr noundef nonnull %2) #21
  br label %zend_string_release_ex.exit

zend_string_release_ex.exit:                      ; preds = %1, %6, %11
  ret void
}